; Function Attrs: mustprogress uwtable
define hidden noundef i64 @_ZNK12opencv_caffe14ScaleParameter12ByteSizeLongEv(ptr noundef nonnull align 8 dereferenceable(56) %0) unnamed_addr #3 align 2 {
  %2 = getelementptr inbounds nuw i8, ptr %0, i64 16
  %3 = load i32, ptr %2, align 8, !tbaa !71
  %4 = and i32 %3, 31
  %.not = icmp eq i32 %4, 0
  br i1 %.not, label %67, label %5

5:                                                ; preds = %1
  %6 = and i32 %3, 1
  %.not12 = icmp eq i32 %6, 0
  br i1 %.not12, label %21, label %7

7:                                                ; preds = %5
  %8 = getelementptr inbounds nuw i8, ptr %0, i64 24
  %9 = load ptr, ptr %8, align 8, !tbaa !619
  %10 = tail call noundef i64 @_ZNK12opencv_caffe15FillerParameter12ByteSizeLongEv(ptr noundef nonnull align 8 dereferenceable(64) %9)
  %11 = trunc i64 %10 to i32
  %12 = or i32 %11, 1
  %13 = tail call range(i32 0, 33) i32 @llvm.ctlz.i32(i32 %12, i1 true)
  %14 = xor i32 %13, 31
  %15 = mul nuw nsw i32 %14, 9
  %16 = add nuw nsw i32 %15, 73
  %17 = lshr i32 %16, 6
  %18 = zext nneg i32 %17 to i64
  %19 = add i64 %10, 1
  %20 = add i64 %19, %18
  br label %21

21:                                               ; preds = %7, %5
  %.1 = phi i64 [ %20, %7 ], [ 0, %5 ]
  %22 = and i32 %3, 2
  %.not13 = icmp eq i32 %22, 0
  br i1 %.not13, label %38, label %23

23:                                               ; preds = %21
  %24 = getelementptr inbounds nuw i8, ptr %0, i64 32
  %25 = load ptr, ptr %24, align 8, !tbaa !621
  %26 = tail call noundef i64 @_ZNK12opencv_caffe15FillerParameter12ByteSizeLongEv(ptr noundef nonnull align 8 dereferenceable(64) %25)
  %27 = trunc i64 %26 to i32
  %28 = or i32 %27, 1
  %29 = tail call range(i32 0, 33) i32 @llvm.ctlz.i32(i32 %28, i1 true)
  %30 = xor i32 %29, 31
  %31 = mul nuw nsw i32 %30, 9
  %32 = add nuw nsw i32 %31, 73
  %33 = lshr i32 %32, 6
  %34 = zext nneg i32 %33 to i64
  %35 = add i64 %.1, 1
  %36 = add i64 %35, %26
  %37 = add i64 %36, %34
  br label %38

38:                                               ; preds = %23, %21
  %.2 = phi i64 [ %37, %23 ], [ %.1, %21 ]
  %39 = lshr i32 %3, 1
  %40 = and i32 %39, 2
  %41 = zext nneg i32 %40 to i64
  %spec.select = add i64 %.2, %41
  %42 = and i32 %3, 8
  %.not15 = icmp eq i32 %42, 0
  br i1 %.not15, label %54, label %43

43:                                               ; preds = %38
  %44 = getelementptr inbounds nuw i8, ptr %0, i64 44
  %45 = load i32, ptr %44, align 4, !tbaa !623
  %46 = or i32 %45, 1
  %47 = sext i32 %46 to i64
  %48 = tail call range(i64 0, 65) i64 @llvm.ctlz.i64(i64 %47, i1 true)
  %49 = xor i64 %48, 63
  %50 = mul nuw nsw i64 %49, 9
  %51 = add nuw nsw i64 %50, 137
  %52 = lshr i64 %51, 6
  %53 = add i64 %52, %spec.select
  br label %54

54:                                               ; preds = %43, %38
  %.4 = phi i64 [ %53, %43 ], [ %spec.select, %38 ]
  %55 = and i32 %3, 16
  %.not16 = icmp eq i32 %55, 0
  br i1 %.not16, label %67, label %56

56:                                               ; preds = %54
  %57 = getelementptr inbounds nuw i8, ptr %0, i64 48
  %58 = load i32, ptr %57, align 8, !tbaa !624
  %59 = or i32 %58, 1
  %60 = sext i32 %59 to i64
  %61 = tail call range(i64 0, 65) i64 @llvm.ctlz.i64(i64 %60, i1 true)
  %62 = xor i64 %61, 63
  %63 = mul nuw nsw i64 %62, 9
  %64 = add nuw nsw i64 %63, 137
  %65 = lshr i64 %64, 6
  %66 = add i64 %65, %.4
  br label %67

67:                                               ; preds = %54, %56, %1
  %.0 = phi i64 [ %66, %56 ], [ %.4, %54 ], [ 0, %1 ]
  %68 = getelementptr inbounds nuw i8, ptr %0, i64 20
  %69 = tail call noundef i64 @_ZNK6google8protobuf7Message29MaybeComputeUnknownFieldsSizeEmPNS0_8internal10CachedSizeE(ptr noundef nonnull align 8 dereferenceable(16) %0, i64 noundef %.0, ptr noundef nonnull %68)
  ret i64 %69
}